target datalayout = "e-m:e-p270:32:32-p271:32:32-p272:64:64-i64:64-i128:128-f80:128-n8:16:32:64-S128"
target triple = "x86_64-unknown-linux-gnu"

%"struct.std::atomic" = type { %"struct.std::__atomic_base" }
%"struct.std::__atomic_base" = type { i32 }
%"class.std::unique_ptr.134" = type { %"struct.std::__uniq_ptr_data.135" }
%"struct.std::__uniq_ptr_data.135" = type { %"class.std::__uniq_ptr_impl.136" }
%"class.std::__uniq_ptr_impl.136" = type { %"class.std::tuple.137" }
%"class.std::tuple.137" = type { %"struct.std::_Tuple_impl.138" }
%"struct.std::_Tuple_impl.138" = type { %"struct.std::_Head_base.141" }
%"struct.std::_Head_base.141" = type { ptr }
%"class.rocksdb::WriteController" = type { %"struct.std::atomic", %"struct.std::atomic", %"struct.std::atomic", i64, i64, i64, i64, %"class.std::unique_ptr.330" }
%"class.std::unique_ptr.330" = type { %"struct.std::__uniq_ptr_data.331" }
%"struct.std::__uniq_ptr_data.331" = type { %"class.std::__uniq_ptr_impl.332" }
%"class.std::__uniq_ptr_impl.332" = type { %"class.std::tuple.333" }
%"class.std::tuple.333" = type { %"struct.std::_Tuple_impl.334" }
%"struct.std::_Tuple_impl.334" = type { %"struct.std::_Head_base.337" }
%"struct.std::_Head_base.337" = type { ptr }

; Function Attrs: mustprogress nounwind uwtable
define linkonce_odr noundef i32 @_ZStanSt12memory_orderSt23__memory_order_modifier(i32 noundef %__m, i32 noundef %__mod) #1 comdat {
entry:
  %__m.addr = alloca i32, align 4
  %__mod.addr = alloca i32, align 4
  store i32 %__m, ptr %__m.addr, align 4
  store i32 %__mod, ptr %__mod.addr, align 4
  %0 = load i32, ptr %__m.addr, align 4
  %1 = load i32, ptr %__mod.addr, align 4
  %and = and i32 %0, %1
  ret i32 %and
}

; Function Attrs: mustprogress nounwind uwtable
define linkonce_odr noundef zeroext i1 @_ZNK7rocksdb15WriteController10NeedsDelayEv(ptr noundef nonnull align 8 dereferenceable(56) %this) #1 comdat align 2 {
entry:
  %this.addr.i = alloca ptr, align 8
  %__m.addr.i = alloca i32, align 4
  %__b.i = alloca i32, align 4
  %atomic-temp.i = alloca i32, align 4
  %this.addr = alloca ptr, align 8
  store ptr %this, ptr %this.addr, align 8
  %this1 = load ptr, ptr %this.addr, align 8
  %total_delayed_ = getelementptr inbounds %"class.rocksdb::WriteController", ptr %this1, i32 0, i32 1
  store ptr %total_delayed_, ptr %this.addr.i, align 8
  store i32 5, ptr %__m.addr.i, align 4
  %this1.i = load ptr, ptr %this.addr.i, align 8
  %0 = load i32, ptr %__m.addr.i, align 4
  %call.i = call noundef i32 @_ZStanSt12memory_orderSt23__memory_order_modifier(i32 noundef %0, i32 noundef 65535)
  store i32 %call.i, ptr %__b.i, align 4
  %1 = load i32, ptr %__m.addr.i, align 4
  switch i32 %1, label %monotonic.i [
    i32 1, label %acquire.i
    i32 2, label %acquire.i
    i32 5, label %seqcst.i
  ]

monotonic.i:                                      ; preds = %entry
  %2 = load atomic i32, ptr %this1.i monotonic, align 4
  store i32 %2, ptr %atomic-temp.i, align 4
  br label %_ZNKSt13__atomic_baseIiE4loadESt12memory_order.exit

acquire.i:                                        ; preds = %entry, %entry
  %3 = load atomic i32, ptr %this1.i acquire, align 4
  store i32 %3, ptr %atomic-temp.i, align 4
  br label %_ZNKSt13__atomic_baseIiE4loadESt12memory_order.exit

seqcst.i:                                         ; preds = %entry
  %4 = load atomic i32, ptr %this1.i seq_cst, align 4
  store i32 %4, ptr %atomic-temp.i, align 4
  br label %_ZNKSt13__atomic_baseIiE4loadESt12memory_order.exit

_ZNKSt13__atomic_baseIiE4loadESt12memory_order.exit: ; preds = %seqcst.i, %acquire.i, %monotonic.i
  %5 = load i32, ptr %atomic-temp.i, align 4
  %cmp = icmp sgt i32 %5, 0
  ret i1 %cmp
}

; Function Attrs: mustprogress nounwind uwtable
define linkonce_odr noundef i64 @_ZNK7rocksdb15WriteController18delayed_write_rateEv(ptr noundef nonnull align 8 dereferenceable(56) %this) #1 comdat align 2 {
entry:
  %this.addr = alloca ptr, align 8
  store ptr %this, ptr %this.addr, align 8
  %this1 = load ptr, ptr %this.addr, align 8
  %delayed_write_rate_ = getelementptr inbounds %"class.rocksdb::WriteController", ptr %this1, i32 0, i32 6
  %0 = load i64, ptr %delayed_write_rate_, align 8
  ret i64 %0
}

; Function Attrs: mustprogress nounwind uwtable
define linkonce_odr noundef i64 @_ZNK7rocksdb15WriteController22max_delayed_write_rateEv(ptr noundef nonnull align 8 dereferenceable(56) %this) #1 comdat align 2 {
entry:
  %this.addr = alloca ptr, align 8
  store ptr %this, ptr %this.addr, align 8
  %this1 = load ptr, ptr %this.addr, align 8
  %max_delayed_write_rate_ = getelementptr inbounds %"class.rocksdb::WriteController", ptr %this1, i32 0, i32 5
  %0 = load i64, ptr %max_delayed_write_rate_, align 8
  ret i64 %0
}

; Function Attrs: mustprogress uwtable
define internal void @_ZN7rocksdb12_GLOBAL__N_110SetupDelayEPNS_15WriteControllerEmmbb(ptr noalias sret(%"class.std::unique_ptr.134") align 8 %agg.result, ptr noundef %write_controller, i64 noundef %compaction_needed_bytes, i64 noundef %prev_compaction_need_bytes, i1 noundef zeroext %penalize_stop, i1 noundef zeroext %auto_compactions_disabled) #0 {
entry:
  %result.ptr = alloca ptr, align 8
  %write_controller.addr = alloca ptr, align 8
  %compaction_needed_bytes.addr = alloca i64, align 8
  %prev_compaction_need_bytes.addr = alloca i64, align 8
  %penalize_stop.addr = alloca i8, align 1
  %auto_compactions_disabled.addr = alloca i8, align 1
  %kMinWriteRate = alloca i64, align 8
  %max_write_rate = alloca i64, align 8
  %write_rate = alloca i64, align 8
  store ptr %agg.result, ptr %result.ptr, align 8
  store ptr %write_controller, ptr %write_controller.addr, align 8
  store i64 %compaction_needed_bytes, ptr %compaction_needed_bytes.addr, align 8
  store i64 %prev_compaction_need_bytes, ptr %prev_compaction_need_bytes.addr, align 8
  %frombool = zext i1 %penalize_stop to i8
  store i8 %frombool, ptr %penalize_stop.addr, align 1
  %frombool1 = zext i1 %auto_compactions_disabled to i8
  store i8 %frombool1, ptr %auto_compactions_disabled.addr, align 1
  store i64 16384, ptr %kMinWriteRate, align 8
  %0 = load ptr, ptr %write_controller.addr, align 8
  %call = call noundef i64 @_ZNK7rocksdb15WriteController22max_delayed_write_rateEv(ptr noundef nonnull align 8 dereferenceable(56) %0)
  store i64 %call, ptr %max_write_rate, align 8
  %1 = load ptr, ptr %write_controller.addr, align 8
  %call2 = call noundef i64 @_ZNK7rocksdb15WriteController18delayed_write_rateEv(ptr noundef nonnull align 8 dereferenceable(56) %1)
  store i64 %call2, ptr %write_rate, align 8
  %2 = load i8, ptr %auto_compactions_disabled.addr, align 1
  %tobool = trunc i8 %2 to i1
  br i1 %tobool, label %if.then, label %if.else

if.then:                                          ; preds = %entry
  %3 = load i64, ptr %max_write_rate, align 8
  store i64 %3, ptr %write_rate, align 8
  br label %if.end34

if.else:                                          ; preds = %entry
  %4 = load ptr, ptr %write_controller.addr, align 8
  %call3 = call noundef zeroext i1 @_ZNK7rocksdb15WriteController10NeedsDelayEv(ptr noundef nonnull align 8 dereferenceable(56) %4)
  br i1 %call3, label %land.lhs.true, label %if.end33

land.lhs.true:                                    ; preds = %if.else
  %5 = load i64, ptr %max_write_rate, align 8
  %cmp = icmp ugt i64 %5, 16384
  br i1 %cmp, label %if.then4, label %if.end33

if.then4:                                         ; preds = %land.lhs.true
  %6 = load i8, ptr %penalize_stop.addr, align 1
  %tobool5 = trunc i8 %6 to i1
  br i1 %tobool5, label %if.then6, label %if.else10

if.then6:                                         ; preds = %if.then4
  %7 = load i64, ptr %write_rate, align 8
  %conv = uitofp i64 %7 to double
  %mul = fmul double %conv, 6.000000e-01
  %conv7 = fptoui double %mul to i64
  store i64 %conv7, ptr %write_rate, align 8
  %8 = load i64, ptr %write_rate, align 8
  %cmp8 = icmp ult i64 %8, 16384
  br i1 %cmp8, label %if.then9, label %if.end

if.then9:                                         ; preds = %if.then6
  store i64 16384, ptr %write_rate, align 8
  br label %if.end

if.end:                                           ; preds = %if.then9, %if.then6
  br label %if.end32

if.else10:                                        ; preds = %if.then4
  %9 = load i64, ptr %prev_compaction_need_bytes.addr, align 8
  %cmp11 = icmp ugt i64 %9, 0
  br i1 %cmp11, label %land.lhs.true12, label %if.else21

land.lhs.true12:                                  ; preds = %if.else10
  %10 = load i64, ptr %prev_compaction_need_bytes.addr, align 8
  %11 = load i64, ptr %compaction_needed_bytes.addr, align 8
  %cmp13 = icmp ule i64 %10, %11
  br i1 %cmp13, label %if.then14, label %if.else21

if.then14:                                        ; preds = %land.lhs.true12
  %12 = load i64, ptr %write_rate, align 8
  %conv15 = uitofp i64 %12 to double
  %mul16 = fmul double %conv15, 8.000000e-01
  %conv17 = fptoui double %mul16 to i64
  store i64 %conv17, ptr %write_rate, align 8
  %13 = load i64, ptr %write_rate, align 8
  %cmp18 = icmp ult i64 %13, 16384
  br i1 %cmp18, label %if.then19, label %if.end20

if.then19:                                        ; preds = %if.then14
  store i64 16384, ptr %write_rate, align 8
  br label %if.end20

if.end20:                                         ; preds = %if.then19, %if.then14
  br label %if.end31

if.else21:                                        ; preds = %land.lhs.true12, %if.else10
  %14 = load i64, ptr %prev_compaction_need_bytes.addr, align 8
  %15 = load i64, ptr %compaction_needed_bytes.addr, align 8
  %cmp22 = icmp ugt i64 %14, %15
  br i1 %cmp22, label %if.then23, label %if.end30

if.then23:                                        ; preds = %if.else21
  %16 = load i64, ptr %write_rate, align 8
  %conv24 = uitofp i64 %16 to double
  %mul25 = fmul double %conv24, 1.250000e+00
  %conv26 = fptoui double %mul25 to i64
  store i64 %conv26, ptr %write_rate, align 8
  %17 = load i64, ptr %write_rate, align 8
  %18 = load i64, ptr %max_write_rate, align 8
  %cmp27 = icmp ugt i64 %17, %18
  br i1 %cmp27, label %if.then28, label %if.end29

if.then28:                                        ; preds = %if.then23
  %19 = load i64, ptr %max_write_rate, align 8
  store i64 %19, ptr %write_rate, align 8
  br label %if.end29

if.end29:                                         ; preds = %if.then28, %if.then23
  br label %if.end30

if.end30:                                         ; preds = %if.end29, %if.else21
  br label %if.end31

if.end31:                                         ; preds = %if.end30, %if.end20
  br label %if.end32

if.end32:                                         ; preds = %if.end31, %if.end
  br label %if.end33

if.end33:                                         ; preds = %if.end32, %land.lhs.true, %if.else
  br label %if.end34

if.end34:                                         ; preds = %if.end33, %if.then
  %20 = load ptr, ptr %write_controller.addr, align 8
  %21 = load i64, ptr %write_rate, align 8
  call void @_ZN7rocksdb15WriteController13GetDelayTokenEm(ptr sret(%"class.std::unique_ptr.134") align 8 %agg.result, ptr noundef nonnull align 8 dereferenceable(56) %20, i64 noundef %21)
  ret void
}