; Function Attrs: mustprogress uwtable
define internal fastcc void @_ZN7rocksdb12_GLOBAL__N_110SetupDelayEPNS_15WriteControllerEmmbb(ptr noalias align 8 %agg.result, ptr noundef %write_controller, i64 noundef %compaction_needed_bytes, i64 noundef %prev_compaction_need_bytes, i1 noundef zeroext %penalize_stop, i1 noundef zeroext %auto_compactions_disabled) unnamed_addr #7 {
entry:
  %max_delayed_write_rate_.i = getelementptr inbounds i8, ptr %write_controller, i64 32
  %0 = load i64, ptr %max_delayed_write_rate_.i, align 8
  %delayed_write_rate_.i = getelementptr inbounds i8, ptr %write_controller, i64 40
  %1 = load i64, ptr %delayed_write_rate_.i, align 8
  br i1 %auto_compactions_disabled, label %if.end34, label %if.else

if.else:                                          ; preds = %entry
  %total_delayed_.i = getelementptr inbounds i8, ptr %write_controller, i64 4
  %2 = load atomic i32, ptr %total_delayed_.i seq_cst, align 4
  %cmp.i = icmp sgt i32 %2, 0
  %cmp = icmp ugt i64 %0, 16384
  %or.cond = and i1 %cmp, %cmp.i
  br i1 %or.cond, label %if.then4, label %if.end34

if.then4:                                         ; preds = %if.else
  br i1 %penalize_stop, label %if.then6, label %if.else10

if.then6:                                         ; preds = %if.then4
  %conv = uitofp i64 %1 to double
  %mul = fmul double %conv, 6.000000e-01
  %conv7 = fptoui double %mul to i64
  %spec.store.select = tail call i64 @llvm.umax.i64(i64 %conv7, i64 16384)
  br label %if.end34

if.else10:                                        ; preds = %if.then4
  %3 = add i64 %prev_compaction_need_bytes, -1
  %or.cond17.not = icmp ult i64 %3, %compaction_needed_bytes
  br i1 %or.cond17.not, label %if.then14, label %if.else21

if.then14:                                        ; preds = %if.else10
  %conv15 = uitofp i64 %1 to double
  %mul16 = fmul double %conv15, 8.000000e-01
  %conv17 = fptoui double %mul16 to i64
  %spec.store.select1 = tail call i64 @llvm.umax.i64(i64 %conv17, i64 16384)
  br label %if.end34

if.else21:                                        ; preds = %if.else10
  %cmp13.not = icmp ugt i64 %prev_compaction_need_bytes, %compaction_needed_bytes
  br i1 %cmp13.not, label %if.then23, label %if.end34

if.then23:                                        ; preds = %if.else21
  %conv24 = uitofp i64 %1 to double
  %mul25 = fmul double %conv24, 1.250000e+00
  %conv26 = fptoui double %mul25 to i64
  %spec.select = tail call i64 @llvm.umin.i64(i64 %0, i64 %conv26)
  br label %if.end34

if.end34:                                         ; preds = %if.then23, %entry, %if.else, %if.then14, %if.else21, %if.then6
  %write_rate.0 = phi i64 [ %spec.store.select, %if.then6 ], [ %spec.store.select1, %if.then14 ], [ %1, %if.else21 ], [ %1, %if.else ], [ %0, %entry ], [ %spec.select, %if.then23 ]
  tail call void @_ZN7rocksdb15WriteController13GetDelayTokenEm(ptr sret(%"class.std::unique_ptr.134") align 8 %agg.result, ptr noundef nonnull align 8 dereferenceable(56) %write_controller, i64 noundef %write_rate.0)
  ret void
}